LX51 LINKER/LOCATER V4.66.100.0                                                         09/04/2023  12:36:46  PAGE 1


LX51 LINKER/LOCATER V4.66.100.0, INVOKED BY:
C:\DEV TOOLS\KEIL C51\C51\BIN\LX51.EXE .\BUILD\RELEASE\SRC\STC8G_H_DELAY.O, .\BUILD\RELEASE\SRC\STC8G_H_TIMER_ISR.O, .\B
>> UILD\RELEASE\SRC\STC8G_H_UART.O, .\BUILD\RELEASE\SRC\STC8G_H_UART_ISR.O, .\BUILD\RELEASE\SRC\STC8G_H_WDT.O, .\BUILD\R
>> ELEASE\SRC\SYSTEM_CONFIG.O, .\BUILD\RELEASE\SRC\MAIN.O TO .\BUILD\RELEASE\UART_TEST PRINT (.\build\Release\UART_Test.
>> map) REMOVEUNUSED


CPU MODE:     8051 MODE
MEMORY MODEL: SMALL


INPUT MODULES INCLUDED:
  .\BUILD\RELEASE\SRC\STC8G_H_DELAY.O (STC8G_H_DELAY)
         COMMENT TYPE 0: C51 V9.60.7.0
  .\BUILD\RELEASE\SRC\STC8G_H_TIMER_ISR.O (STC8G_H_TIMER_ISR)
         COMMENT TYPE 0: C51 V9.60.7.0
  .\BUILD\RELEASE\SRC\STC8G_H_UART.O (STC8G_H_UART)
         COMMENT TYPE 0: C51 V9.60.7.0
  .\BUILD\RELEASE\SRC\STC8G_H_UART_ISR.O (STC8G_H_UART_ISR)
         COMMENT TYPE 0: C51 V9.60.7.0
  .\BUILD\RELEASE\SRC\STC8G_H_WDT.O (STC8G_H_WDT)
         COMMENT TYPE 0: C51 V9.60.7.0
  .\BUILD\RELEASE\SRC\SYSTEM_CONFIG.O (SYSTEM_CONFIG)
         COMMENT TYPE 0: C51 V9.60.7.0
  .\BUILD\RELEASE\SRC\MAIN.O (MAIN)
         COMMENT TYPE 0: C51 V9.60.7.0
  C:\DEV TOOLS\KEIL C51\C51\LIB\C51S.LIB (?C_STARTUP)
         COMMENT TYPE 1: A51 / ASM51 Assembler
  C:\DEV TOOLS\KEIL C51\C51\LIB\C51S.LIB (?C?CLDPTR)
         COMMENT TYPE 1: A51 / ASM51 Assembler
  C:\DEV TOOLS\KEIL C51\C51\LIB\C51S.LIB (?C?CLDOPTR)
         COMMENT TYPE 1: A51 / ASM51 Assembler
  C:\DEV TOOLS\KEIL C51\C51\LIB\C51S.LIB (?C?CSTOPTR)
         COMMENT TYPE 1: A51 / ASM51 Assembler
  C:\DEV TOOLS\KEIL C51\C51\LIB\C51S.LIB (?C?UIDIV)
         COMMENT TYPE 1: A51 / ASM51 Assembler
  C:\DEV TOOLS\KEIL C51\C51\LIB\C51S.LIB (?C?ULDIV)
         COMMENT TYPE 1: A51 / ASM51 Assembler
  C:\DEV TOOLS\KEIL C51\C51\LIB\C51S.LIB (?C?SLCMP)
         COMMENT TYPE 1: A51 / ASM51 Assembler
  C:\DEV TOOLS\KEIL C51\C51\LIB\C51S.LIB (?C?ULCMP)
         COMMENT TYPE 1: A51 / ASM51 Assembler
  C:\DEV TOOLS\KEIL C51\C51\LIB\C51S.LIB (PRINTF)
         COMMENT TYPE 1: A51 / ASM51 Assembler
  C:\DEV TOOLS\KEIL C51\C51\LIB\C51S.LIB (?C_INIT)
         COMMENT TYPE 1: A51 / ASM51 Assembler
  C:\DEV TOOLS\KEIL C51\C51\LIB\C51S.LIB (?C?CSTPTR)
         COMMENT TYPE 1: A51 / ASM51 Assembler
  C:\DEV TOOLS\KEIL C51\C51\LIB\C51S.LIB (?C?PLDIIDATA)
         COMMENT TYPE 1: A51 / ASM51 Assembler
  C:\DEV TOOLS\KEIL C51\C51\LIB\C51S.LIB (?C?CCASE)
         COMMENT TYPE 1: A51 / ASM51 Assembler


ACTIVE MEMORY CLASSES OF MODULE:  .\BUILD\RELEASE\UART_TEST (STC8G_H_DELAY)

BASE        START       END         USED      MEMORY CLASS
==========================================================
C:000000H   C:000000H   C:00FFFFH   000892H   CODE
I:000000H   I:000000H   I:00007FH   000025H   DATA
X:000000H   X:000000H   X:00FFFFH   000080H   XDATA
C:000000H   C:000000H   C:00FFFFH   00001CH   CONST
I:000020H.0 I:000020H.0 I:00002FH.7 000001H.2 BIT
I:000000H   I:000000H   I:0000FFH   000001H   IDATA


LX51 LINKER/LOCATER V4.66.100.0                                                       09/04/2023  12:36:46  PAGE 2


MEMORY MAP OF MODULE:  .\BUILD\RELEASE\UART_TEST (STC8G_H_DELAY)


START     STOP      LENGTH    ALIGN  RELOC    MEMORY CLASS   SEGMENT NAME
=========================================================================

* * * * * * * * * * *   D A T A   M E M O R Y   * * * * * * * * * * * * *
000000H   000007H   000008H   ---    AT..     DATA           "REG BANK 0"
000008H   00001DH   000016H   BYTE   UNIT     DATA           _DATA_GROUP_
00001EH   00001FH   000002H   BYTE   UNIT     DATA           ?DT?MAIN
000020H.0 000021H.0 000001H.1 BIT    UNIT     BIT            _BIT_GROUP_
000021H.1 000021H.1 000000H.1 BIT    UNIT     BIT            ?BI?MAIN
000021H.2 000021H   000000H.6 ---    ---      **GAP**
000022H   000026H   000005H   BYTE   UNIT     DATA           ?DT?STC8G_H_UART
000027H   000027H   000001H   BYTE   UNIT     IDATA          ?STACK

* * * * * * * * * * *   C O D E   M E M O R Y   * * * * * * * * * * * * *
000000H   000002H   000003H   ---    OFFS..   CODE           ?CO??C_STARTUP?0
000003H   000007H   000005H   BYTE   UNIT     CODE           ?PR?_PUTCHAR?STC8G_H_UART
000008H   000008H   000001H   BYTE   UNIT     CODE           ?PR?TIMER1_ISR_HANDLER?STC8G_H_TIMER_ISR
000009H   00000AH   000002H   ---    ---      **GAP**
00000BH   00000DH   000003H   BYTE   OFFS..   CODE           ?STC8G_H_TIMER_ISR?0000B
00000EH   00001AH   00000DH   ---    ---      **GAP**
00001BH   00001DH   000003H   BYTE   OFFS..   CODE           ?STC8G_H_TIMER_ISR?0001B
00001EH   000022H   000005H   ---    ---      **GAP**
000023H   000025H   000003H   BYTE   OFFS..   CODE           ?STC8G_H_UART_ISR?00023
000026H   000381H   00035CH   BYTE   UNIT     CODE           ?PR?PRINTF?PRINTF
000382H   00057BH   0001FAH   BYTE   UNIT     CODE           ?C?LIB_CODE
00057CH   00064AH   0000CFH   BYTE   UNIT     CODE           ?PR?SYSTEM_CONFIG?SYSTEM_CONFIG
00064BH   0006D6H   00008CH   BYTE   UNIT     CODE           ?C_C51STARTUP
0006D7H   000748H   000072H   BYTE   UNIT     CODE           ?PR?TIMER0_ISR_HANDLER?STC8G_H_TIMER_ISR
000749H   0007ABH   000063H   BYTE   UNIT     CODE           ?PR?UART1_ISR_HANDLER?STC8G_H_UART_ISR
0007ACH   00080CH   000061H   BYTE   UNIT     CODE           ?PR?MAIN?MAIN
00080DH   00085DH   000051H   BYTE   UNIT     CODE           ?PR?_READ_RX_BUF?STC8G_H_UART
00085EH   000880H   000023H   BYTE   UNIT     CODE           ?PR?_UART_SENDBYTE?STC8G_H_UART
000881H   000897H   000017H   BYTE   UNIT     CODE           ?PR?_DELAY_MS?STC8G_H_DELAY
000898H   0008A5H   00000EH   BYTE   UNIT     CODE           ?C_INITSEG
0008A6H   0008C1H   00001CH   BYTE   UNIT     CONST          ?CO?MAIN

* * * * * * * * * * *  X D A T A   M E M O R Y  * * * * * * * * * * * * *
000000H   00005FH   000060H   BYTE   UNIT     XDATA          ?XD?STC8G_H_UART
000060H   00007FH   000020H   BYTE   UNIT     XDATA          ?XD?MAIN

* * * * * * * * *   R E M O V E D     S E G M E N T S   * * * * * * * *
   *DEL*:           000013H   BYTE   UNIT     CODE           ?PR?_UART_SENDSTR?STC8G_H_UART
   *DEL*:           000029H   BYTE   UNIT     CODE           ?PR?_WDT_INIT?STC8G_H_WDT



OVERLAY MAP OF MODULE:   .\BUILD\RELEASE\UART_TEST (STC8G_H_DELAY)


FUNCTION/MODULE                            BIT_GROUP   DATA_GROUP 
--> CALLED FUNCTION/MODULE                START  STOP  START  STOP
==================================================================
TIMER0_ISR_HANDLER/STC8G_H_TIMER_ISR      ----- -----  ----- -----

*** NEW ROOT ****************************

TIMER1_ISR_HANDLER/STC8G_H_TIMER_ISR      ----- -----  ----- -----

*** NEW ROOT ****************************

UART1_ISR_HANDLER/STC8G_H_UART_ISR        ----- -----  ----- -----

LX51 LINKER/LOCATER V4.66.100.0                                                       09/04/2023  12:36:46  PAGE 3


*** NEW ROOT ****************************

?C_C51STARTUP                             ----- -----  ----- -----
  +--> MAIN/MAIN
  +--> ?C_INITSEG

MAIN/MAIN                                 ----- -----  0008H 0009H
  +--> SYSTEM_CONFIG/SYSTEM_CONFIG
  +--> _DELAY_MS/STC8G_H_DELAY
  +--> PRINTF/PRINTF
  +--> _READ_RX_BUF/STC8G_H_UART
  +--> _UART_SENDBYTE/STC8G_H_UART

SYSTEM_CONFIG/SYSTEM_CONFIG               ----- -----  000AH 000DH
  +--> _DELAY_MS/STC8G_H_DELAY

_DELAY_MS/STC8G_H_DELAY                   ----- -----  ----- -----

PRINTF/PRINTF                             20H.0 21H.0  000AH 001DH
  +--> _PUTCHAR/STC8G_H_UART

_PUTCHAR/STC8G_H_UART                     ----- -----  ----- -----
  +--> _UART_SENDBYTE/STC8G_H_UART

_UART_SENDBYTE/STC8G_H_UART               ----- -----  ----- -----

_READ_RX_BUF/STC8G_H_UART                 ----- -----  000AH 0012H

?C_INITSEG                                ----- -----  ----- -----



PUBLIC SYMBOLS OF MODULE:  .\BUILD\RELEASE\UART_TEST (STC8G_H_DELAY)


      VALUE       CLASS    TYPE      PUBLIC SYMBOL NAME
      =================================================
      0000000AH   DATA     ---       ?_PRINTF517?BYTE
      0000000AH   DATA     ---       ?_PRINTF?BYTE
      0000000AH   DATA     BYTE      ?_Read_RX_BUF?BYTE
      0000000AH   DATA     ---       ?_SPRINTF517?BYTE
      0000000AH   DATA     ---       ?_SPRINTF?BYTE
      01000556H   CODE     ---       ?C?CCASE
      0100039BH   CODE     ---       ?C?CLDOPTR
      01000382H   CODE     ---       ?C?CLDPTR
      00000000H   NUMBER   ---       ?C?CODESEG
      010003C8H   CODE     ---       ?C?CSTOPTR
      01000534H   CODE     ---       ?C?CSTPTR
      01000546H   CODE     ---       ?C?PLDIIDATA
      0100050DH   CODE     ---       ?C?SLCMP
      010003EAH   CODE     ---       ?C?UIDIV
      01000523H   CODE     ---       ?C?ULCMP
      0100047BH   CODE     ---       ?C?ULDIV
      00000000H   NUMBER   ---       ?C?XDATASEG
      01000692H   CODE     ---       ?C_START
      01000000H   CODE     ---       ?C_STARTUP
      01000881H   CODE     ---       _delay_ms
      01000088H   CODE     ---       _PRINTF
      01000088H   CODE     ---       _PRINTF517
      01000003H   CODE     ---       _putchar
      0100080DH   CODE     ---       _Read_RX_BUF
      01000082H   CODE     ---       _SPRINTF
      01000082H   CODE     ---       _SPRINTF517
      0100085EH   CODE     ---       _UART_SendByte
*DEL*:00000000H   CODE     ---       _UART_SendStr
LX51 LINKER/LOCATER V4.66.100.0                                                       09/04/2023  12:36:46  PAGE 4


*DEL*:00000000H   CODE     ---       _WDT_Init
      00000022H   DATA     ---       COM1
      02000060H   XDATA    ---       Deal_Buf
      00000021H.1 BIT      BIT       Flag_1s
      010007ACH   CODE     ---       main
      0000001EH   DATA     WORD      ms_Recorder
      02000000H   XDATA    ---       RX1_Buffer
      0100057CH   CODE     ---       System_config
      010006D7H   CODE     ---       Timer0_ISR_Handler
      01000008H   CODE     ---       Timer1_ISR_Handler
      02000020H   XDATA    ---       TX1_Buffer
      01000749H   CODE     ---       UART1_ISR_Handler



SYMBOL TABLE OF MODULE:  .\BUILD\RELEASE\UART_TEST (STC8G_H_DELAY)

      VALUE       REP       CLASS    TYPE      SYMBOL NAME
      ====================================================
      ---         MODULE    ---      ---       STC8G_H_DELAY
      01000881H   PUBLIC    CODE     ---       _delay_ms

      01000881H   BLOCK     CODE     ---       LVL=0
      01000881H   BLOCK     CODE     NEAR LAB  LVL=1
      00000004H   SYMBOL    DATA     VOID      i
      ---         BLOCKEND  ---      ---       LVL=1
      ---         BLOCKEND  ---      ---       LVL=0

      ---         MODULE    ---      ---       STC8G_H_TIMER_ISR
      01000008H   PUBLIC    CODE     ---       Timer1_ISR_Handler
      010006D7H   PUBLIC    CODE     ---       Timer0_ISR_Handler

      010006D7H   BLOCK     CODE     ---       LVL=0
      ---         BLOCKEND  ---      ---       LVL=0

      01000008H   BLOCK     CODE     ---       LVL=0
      ---         BLOCKEND  ---      ---       LVL=0

      ---         MODULE    ---      ---       STC8G_H_UART
      02000020H   PUBLIC    XDATA    ---       TX1_Buffer
      02000000H   PUBLIC    XDATA    ---       RX1_Buffer
      00000022H   PUBLIC    DATA     ---       COM1
      01000003H   PUBLIC    CODE     ---       _putchar
      0100085EH   PUBLIC    CODE     ---       _UART_SendByte
      0000000AH   PUBLIC    DATA     BYTE      ?_Read_RX_BUF?BYTE
      0100080DH   PUBLIC    CODE     ---       _Read_RX_BUF

      0100080DH   BLOCK     CODE     ---       LVL=0
      01000813H   BLOCK     CODE     NEAR LAB  LVL=1
      00000006H   SYMBOL    DATA     VOID      cnt
      00000007H   SYMBOL    DATA     VOID      i
      ---         BLOCKEND  ---      ---       LVL=1
      ---         BLOCKEND  ---      ---       LVL=0

      0100085EH   BLOCK     CODE     ---       LVL=0
      ---         BLOCKEND  ---      ---       LVL=0

      01000003H   BLOCK     CODE     ---       LVL=0
      ---         BLOCKEND  ---      ---       LVL=0

      ---         MODULE    ---      ---       STC8G_H_UART_ISR
      01000749H   PUBLIC    CODE     ---       UART1_ISR_Handler

      01000749H   BLOCK     CODE     ---       LVL=0
      ---         BLOCKEND  ---      ---       LVL=0
LX51 LINKER/LOCATER V4.66.100.0                                                       09/04/2023  12:36:46  PAGE 5



      ---         MODULE    ---      ---       STC8G_H_WDT

      ---         MODULE    ---      ---       SYSTEM_CONFIG
      0100057CH   PUBLIC    CODE     ---       System_config

      0100057CH   BLOCK     CODE     ---       LVL=0
      0100057CH   BLOCK     CODE     NEAR LAB  LVL=1
      0000000AH   SYMBOL    DATA     VOID      j
      00000007H   SYMBOL    DATA     VOID      GPIO_Pin_X
      ---         BLOCKEND  ---      ---       LVL=1
      ---         BLOCKEND  ---      ---       LVL=0

      ---         MODULE    ---      ---       MAIN
      0000001EH   PUBLIC    DATA     WORD      ms_Recorder
      02000060H   PUBLIC    XDATA    ---       Deal_Buf
      00000021H.1 PUBLIC    BIT      BIT       Flag_1s
      010007ACH   PUBLIC    CODE     ---       main

      010007ACH   BLOCK     CODE     ---       LVL=0
      010007ACH   BLOCK     CODE     NEAR LAB  LVL=1
      00000008H   SYMBOL    DATA     VOID      num
      00000009H   SYMBOL    DATA     VOID      i
      ---         BLOCKEND  ---      ---       LVL=1
      ---         BLOCKEND  ---      ---       LVL=0

      ---         MODULE    ---      ---       ?C_STARTUP
      01000000H   PUBLIC    CODE     ---       ?C_STARTUP

      ---         MODULE    ---      ---       ?C?CLDPTR
      01000382H   PUBLIC    CODE     ---       ?C?CLDPTR

      ---         MODULE    ---      ---       ?C?CLDOPTR
      0100039BH   PUBLIC    CODE     ---       ?C?CLDOPTR

      ---         MODULE    ---      ---       ?C?CSTOPTR
      010003C8H   PUBLIC    CODE     ---       ?C?CSTOPTR

      ---         MODULE    ---      ---       ?C?UIDIV
      010003EAH   PUBLIC    CODE     ---       ?C?UIDIV

      ---         MODULE    ---      ---       ?C?ULDIV
      0100047BH   PUBLIC    CODE     ---       ?C?ULDIV

      ---         MODULE    ---      ---       ?C?SLCMP
      0100050DH   PUBLIC    CODE     ---       ?C?SLCMP

      ---         MODULE    ---      ---       ?C?ULCMP
      01000523H   PUBLIC    CODE     ---       ?C?ULCMP

      ---         MODULE    ---      ---       PRINTF
      0000000AH   PUBLIC    DATA     ---       ?_PRINTF517?BYTE
      0000000AH   PUBLIC    DATA     ---       ?_PRINTF?BYTE
      0000000AH   PUBLIC    DATA     ---       ?_SPRINTF517?BYTE
      0000000AH   PUBLIC    DATA     ---       ?_SPRINTF?BYTE
      01000088H   PUBLIC    CODE     ---       _PRINTF
      01000088H   PUBLIC    CODE     ---       _PRINTF517
      01000082H   PUBLIC    CODE     ---       _SPRINTF
      01000082H   PUBLIC    CODE     ---       _SPRINTF517

      ---         MODULE    ---      ---       ?C_INIT
      01000692H   PUBLIC    CODE     ---       ?C_START

      ---         MODULE    ---      ---       ?C?CSTPTR
      01000534H   PUBLIC    CODE     ---       ?C?CSTPTR
LX51 LINKER/LOCATER V4.66.100.0                                                       09/04/2023  12:36:46  PAGE 6



      ---         MODULE    ---      ---       ?C?PLDIIDATA
      01000546H   PUBLIC    CODE     ---       ?C?PLDIIDATA

      ---         MODULE    ---      ---       ?C?CCASE
      01000556H   PUBLIC    CODE     ---       ?C?CCASE

Program Size: data=39.2 xdata=128 const=28 code=2194
LX51 RUN COMPLETE.  0 WARNING(S),  0 ERROR(S)
